; Function Attrs: mustprogress nounwind uwtable
define noundef zeroext i1 @_ZN18OpenImageIO_v2_6_010Filesystem13is_executableENS_17basic_string_viewIcSt11char_traitsIcEEE(ptr nocapture noundef readonly %path) local_unnamed_addr #3 personality ptr @__gxx_personality_v0 {
entry:
  %agg.tmp = alloca %"class.OpenImageIO_v2_6_0::basic_string_view", align 8
  %ec = alloca %"class.std::error_code", align 8
  %ref.tmp = alloca %"class.std::filesystem::__cxx11::path", align 8
  %0 = load ptr, ptr %path, align 8
  store ptr %0, ptr %agg.tmp, align 8
  %m_len.i = getelementptr inbounds i8, ptr %agg.tmp, i64 8
  %m_len.i.i = getelementptr inbounds i8, ptr %path, i64 8
  %1 = load i64, ptr %m_len.i.i, align 8
  store i64 %1, ptr %m_len.i, align 8
  %call = call noundef zeroext i1 @_ZN18OpenImageIO_v2_6_010Filesystem10is_regularENS_17basic_string_viewIcSt11char_traitsIcEEE(ptr noundef nonnull %agg.tmp) #32
  br i1 %call, label %if.end, label %return

if.end:                                           ; preds = %entry
  store i32 0, ptr %ec, align 8
  %_M_cat.i = getelementptr inbounds i8, ptr %ec, i64 8
  %call.i = tail call noundef nonnull align 8 dereferenceable(8) ptr @_ZNSt3_V215system_categoryEv() #35
  store ptr %call.i, ptr %_M_cat.i, align 8
  %2 = load ptr, ptr %path, align 8
  %3 = load i64, ptr %m_len.i.i, align 8
  %add.ptr.i.i = getelementptr inbounds i8, ptr %2, i64 %3
  invoke void @_ZNSt10filesystem7__cxx114pathC2IPKcS1_EET_S5_NS1_6formatE(ptr noundef nonnull align 8 dereferenceable(40) %ref.tmp, ptr noundef %2, ptr noundef %add.ptr.i.i, i8 noundef zeroext 2)
          to label %invoke.cont3 unwind label %terminate.lpad

invoke.cont3:                                     ; preds = %if.end
  %call4 = call i64 @_ZNSt10filesystem6statusERKNS_7__cxx114pathERSt10error_code(ptr noundef nonnull align 8 dereferenceable(40) %ref.tmp, ptr noundef nonnull align 8 dereferenceable(16) %ec) #32
  %stat.sroa.1.0.extract.shift = lshr i64 %call4, 32
  %stat.sroa.1.0.extract.trunc = trunc i64 %stat.sroa.1.0.extract.shift to i32
  %_M_cmpts.i = getelementptr inbounds i8, ptr %ref.tmp, i64 32
  %4 = load ptr, ptr %_M_cmpts.i, align 8
  %cmp.not.i.i.i = icmp eq ptr %4, null
  br i1 %cmp.not.i.i.i, label %_ZNSt10filesystem7__cxx114pathD2Ev.exit, label %if.then.i.i.i

if.then.i.i.i:                                    ; preds = %invoke.cont3
  call void @_ZNKSt10filesystem7__cxx114path5_List13_Impl_deleterclEPNS2_5_ImplE(ptr noundef nonnull align 1 dereferenceable(1) %_M_cmpts.i, ptr noundef nonnull %4) #32
  br label %_ZNSt10filesystem7__cxx114pathD2Ev.exit

_ZNSt10filesystem7__cxx114pathD2Ev.exit:          ; preds = %invoke.cont3, %if.then.i.i.i
  store ptr null, ptr %_M_cmpts.i, align 8
  call void @_ZNSt7__cxx1112basic_stringIcSt11char_traitsIcESaIcEED1Ev(ptr noundef nonnull align 8 dereferenceable(32) %ref.tmp) #32
  %5 = and i32 %stat.sroa.1.0.extract.trunc, 72
  %or.cond = icmp eq i32 %5, 0
  br i1 %or.cond, label %lor.rhs, label %return

lor.rhs:                                          ; preds = %_ZNSt10filesystem7__cxx114pathD2Ev.exit
  %and.i7 = and i32 %stat.sroa.1.0.extract.trunc, 1
  %cmp10 = icmp ne i32 %and.i7, 0
  br label %return

return:                                           ; preds = %_ZNSt10filesystem7__cxx114pathD2Ev.exit, %lor.rhs, %entry
  %retval.0 = phi i1 [ false, %entry ], [ true, %_ZNSt10filesystem7__cxx114pathD2Ev.exit ], [ %cmp10, %lor.rhs ]
  ret i1 %retval.0

terminate.lpad:                                   ; preds = %if.end
  %6 = landingpad { ptr, i32 }
          catch ptr null
  %7 = extractvalue { ptr, i32 } %6, 0
  call void @__clang_call_terminate(ptr %7) #34
  unreachable
}